; Function Attrs: nounwind uwtable
define internal void @emitter_printf(ptr nocapture noundef readonly %emitter, ptr noundef %format, ...) unnamed_addr #0 {
entry:
  %ap = alloca [1 x %struct.__va_list_tag], align 16
  call void @llvm.va_start.p0(ptr nonnull %ap)
  %write_cb = getelementptr inbounds i8, ptr %emitter, i64 8
  %0 = load ptr, ptr %write_cb, align 8
  %cbopaque = getelementptr inbounds i8, ptr %emitter, i64 16
  %1 = load ptr, ptr %cbopaque, align 8
  call void @malloc_vcprintf(ptr noundef %0, ptr noundef %1, ptr noundef %format, ptr noundef nonnull %ap) #13
  call void @llvm.va_end.p0(ptr nonnull %ap)
  ret void
}